; Function Attrs: nounwind uwtable
define ptr @Abc_NtkSolveGiaMiter(ptr noundef %0) local_unnamed_addr #0 {
  %2 = tail call ptr @Gia_ManToAig(ptr noundef %0, i32 noundef 0) #11
  %3 = tail call ptr @Abc_NtkFromAigPhase(ptr noundef %2) #11
  %4 = load ptr, ptr %0, align 8
  %5 = tail call ptr @Extra_UtilStrsav(ptr noundef %4) #11
  %6 = getelementptr inbounds nuw i8, ptr %3, i64 8
  store ptr %5, ptr %6, align 8
  tail call void @Aig_ManStop(ptr noundef %2) #11
  %7 = tail call i32 @Abc_NtkMiterSat(ptr noundef %3, i64 noundef 1000000, i64 noundef 0, i32 noundef 0, ptr noundef null, ptr noundef null)
  %8 = icmp eq i32 %7, 0
  br i1 %8, label %9, label %12

9:                                                ; preds = %1
  %10 = getelementptr inbounds nuw i8, ptr %3, i64 304
  %11 = load ptr, ptr %10, align 8
  store ptr null, ptr %10, align 8
  br label %12

12:                                               ; preds = %9, %1
  %.0 = phi ptr [ %11, %9 ], [ null, %1 ]
  tail call void @Abc_NtkDelete(ptr noundef nonnull %3) #11
  ret ptr %.0
}